target datalayout = "e-m:e-p270:32:32-p271:32:32-p272:64:64-i64:64-i128:128-f80:128-n8:16:32:64-S128"
target triple = "x86_64-pc-linux-gnu"

%struct.mi_stats_s = type { %struct.mi_stat_count_s, %struct.mi_stat_count_s, %struct.mi_stat_count_s, %struct.mi_stat_count_s, %struct.mi_stat_count_s, %struct.mi_stat_count_s, %struct.mi_stat_count_s, %struct.mi_stat_count_s, %struct.mi_stat_count_s, %struct.mi_stat_count_s, %struct.mi_stat_count_s, %struct.mi_stat_count_s, %struct.mi_stat_count_s, %struct.mi_stat_count_s, %struct.mi_stat_count_s, %struct.mi_stat_counter_s, %struct.mi_stat_counter_s, %struct.mi_stat_counter_s, %struct.mi_stat_counter_s, %struct.mi_stat_counter_s, %struct.mi_stat_counter_s, %struct.mi_stat_counter_s, %struct.mi_stat_counter_s, %struct.mi_stat_counter_s, %struct.mi_stat_counter_s, %struct.mi_stat_counter_s, %struct.mi_stat_counter_s, %struct.mi_stat_counter_s, %struct.mi_stat_counter_s }
%struct.mi_stat_count_s = type { i64, i64, i64, i64 }
%struct.mi_stat_counter_s = type { i64, i64 }
%struct.mi_subproc_s = type { i64, i64, %union.pthread_mutex_t, %union.pthread_mutex_t, ptr, ptr, %struct.mi_memid_s }
%union.pthread_mutex_t = type { %struct.__pthread_mutex_s }
%struct.__pthread_mutex_s = type { i32, i32, i32, i32, i32, i16, i16, %struct.__pthread_internal_list }
%struct.__pthread_internal_list = type { ptr, ptr }
%struct.mi_memid_s = type { %union.anon, i8, i8, i8, i32 }
%union.anon = type { %struct.mi_memid_os_info }
%struct.mi_memid_os_info = type { ptr, i64 }
%struct.mi_segments_tld_s = type { [36 x %struct.mi_span_queue_s], i64, i64, i64, i64, i64, ptr, ptr }
%struct.mi_span_queue_s = type { ptr, ptr, i64 }
%struct.mi_tld_s = type { i64, i8, ptr, ptr, %struct.mi_segments_tld_s, %struct.mi_stats_s }

@mi_subproc_default = internal global %struct.mi_subproc_s zeroinitializer, align 64

; Function Attrs: inlinehint nounwind uwtable
define internal void @_mi_memcpy(ptr noundef %0, ptr noundef %1, i64 noundef %2) #1 {
  %4 = alloca ptr, align 8
  %5 = alloca ptr, align 8
  %6 = alloca i64, align 8
  store ptr %0, ptr %4, align 8, !tbaa !27
  store ptr %1, ptr %5, align 8, !tbaa !27
  store i64 %2, ptr %6, align 8, !tbaa !8
  %7 = load ptr, ptr %4, align 8, !tbaa !27
  %8 = load ptr, ptr %5, align 8, !tbaa !27
  %9 = load i64, ptr %6, align 8, !tbaa !8
  call void @llvm.memcpy.p0.p0.i64(ptr align 1 %7, ptr align 1 %8, i64 %9, i1 false)
  ret void
}

; Function Attrs: inlinehint nounwind uwtable
define internal void @_mi_memcpy_aligned(ptr noundef %0, ptr noundef %1, i64 noundef %2) #1 {
  %4 = alloca ptr, align 8
  %5 = alloca ptr, align 8
  %6 = alloca i64, align 8
  %7 = alloca ptr, align 8
  %8 = alloca ptr, align 8
  store ptr %0, ptr %4, align 8, !tbaa !27
  store ptr %1, ptr %5, align 8, !tbaa !27
  store i64 %2, ptr %6, align 8, !tbaa !8
  call void @llvm.lifetime.start.p0(i64 8, ptr %7) #12
  %9 = load ptr, ptr %4, align 8, !tbaa !27
  call void @llvm.assume(i1 true) [ "align"(ptr %9, i64 8) ]
  store ptr %9, ptr %7, align 8, !tbaa !27
  call void @llvm.lifetime.start.p0(i64 8, ptr %8) #12
  %10 = load ptr, ptr %5, align 8, !tbaa !27
  call void @llvm.assume(i1 true) [ "align"(ptr %10, i64 8) ]
  store ptr %10, ptr %8, align 8, !tbaa !27
  %11 = load ptr, ptr %7, align 8, !tbaa !27
  %12 = load ptr, ptr %8, align 8, !tbaa !27
  %13 = load i64, ptr %6, align 8, !tbaa !8
  call void @_mi_memcpy(ptr noundef %11, ptr noundef %12, i64 noundef %13) #11
  call void @llvm.lifetime.end.p0(i64 8, ptr %8) #12
  call void @llvm.lifetime.end.p0(i64 8, ptr %7) #12
  ret void
}

; Function Attrs: nounwind uwtable
define hidden void @_mi_tld_init(ptr noundef %0, ptr noundef %1) #0 {
  %3 = alloca ptr, align 8
  %4 = alloca ptr, align 8
  store ptr %0, ptr %3, align 8, !tbaa !44
  store ptr %1, ptr %4, align 8, !tbaa !3
  %5 = load ptr, ptr %3, align 8, !tbaa !44
  call void @_mi_memcpy_aligned(ptr noundef %5, ptr noundef @tld_empty, i64 noundef 1656) #11
  %6 = load ptr, ptr %4, align 8, !tbaa !3
  %7 = load ptr, ptr %3, align 8, !tbaa !44
  %8 = getelementptr inbounds nuw %struct.mi_tld_s, ptr %7, i32 0, i32 2
  store ptr %6, ptr %8, align 8, !tbaa !45
  %9 = load ptr, ptr %3, align 8, !tbaa !44
  %10 = getelementptr inbounds nuw %struct.mi_tld_s, ptr %9, i32 0, i32 3
  store ptr null, ptr %10, align 8, !tbaa !46
  %11 = load ptr, ptr %3, align 8, !tbaa !44
  %12 = getelementptr inbounds nuw %struct.mi_tld_s, ptr %11, i32 0, i32 4
  %13 = getelementptr inbounds nuw %struct.mi_segments_tld_s, ptr %12, i32 0, i32 6
  store ptr @mi_subproc_default, ptr %13, align 8, !tbaa !33
  %14 = load ptr, ptr %3, align 8, !tbaa !44
  %15 = getelementptr inbounds nuw %struct.mi_tld_s, ptr %14, i32 0, i32 5
  %16 = load ptr, ptr %3, align 8, !tbaa !44
  %17 = getelementptr inbounds nuw %struct.mi_tld_s, ptr %16, i32 0, i32 4
  %18 = getelementptr inbounds nuw %struct.mi_segments_tld_s, ptr %17, i32 0, i32 7
  store ptr %15, ptr %18, align 8, !tbaa !47
  ret void
}