; Function Attrs: mustprogress nofree norecurse nosync nounwind willreturn memory(argmem: readwrite, inaccessiblemem: write) uwtable
define hidden void @_mi_tld_init(ptr noundef %0, ptr noundef %1) local_unnamed_addr #5 {
  call void @llvm.assume(i1 true) [ "align"(ptr %0, i64 8) ]
  call void @llvm.assume(i1 true) [ "align"(ptr @tld_empty, i64 8) ]
  tail call void @llvm.memcpy.p0.p0.i64(ptr noundef nonnull align 8 dereferenceable(1656) %0, ptr noundef nonnull align 64 dereferenceable(1656) @tld_empty, i64 1656, i1 false)
  %3 = getelementptr inbounds nuw i8, ptr %0, i64 16
  store ptr %1, ptr %3, align 8, !tbaa !41
  %4 = getelementptr inbounds nuw i8, ptr %0, i64 24
  store ptr null, ptr %4, align 8, !tbaa !42
  %5 = getelementptr inbounds nuw i8, ptr %0, i64 936
  store ptr @mi_subproc_default, ptr %5, align 8, !tbaa !30
  %6 = getelementptr inbounds nuw i8, ptr %0, i64 952
  %7 = getelementptr inbounds nuw i8, ptr %0, i64 944
  store ptr %6, ptr %7, align 8, !tbaa !43
  ret void
}